; Function Attrs: mustprogress uwtable
define void @_ZN6google8protobuf3Api20clear_source_contextEv(ptr nocapture noundef nonnull align 8 dereferenceable(128) %this) local_unnamed_addr #3 align 2 {
entry:
  %source_context_ = getelementptr inbounds i8, ptr %this, i64 112
  %0 = load ptr, ptr %source_context_, align 8
  %cmp.not = icmp eq ptr %0, null
  br i1 %cmp.not, label %if.end, label %if.then

if.then:                                          ; preds = %entry
  tail call void @_ZN6google8protobuf13SourceContext5ClearEv(ptr noundef nonnull align 8 dereferenceable(32) %0)
  br label %if.end

if.end:                                           ; preds = %if.then, %entry
  %1 = getelementptr inbounds i8, ptr %this, i64 16
  %2 = load i32, ptr %1, align 8
  %and = and i32 %2, -2
  store i32 %and, ptr %1, align 8
  ret void
}